target datalayout = "e-m:e-p270:32:32-p271:32:32-p272:64:64-i64:64-i128:128-f80:128-n8:16:32:64-S128"
target triple = "x86_64-pc-linux-gnu"

@.str.2 = private unnamed_addr constant [5 x i8] c"%02x\00", align 1

; Function Attrs: nounwind uwtable
define internal void @auth_digest_sha256_to_ascii(ptr noundef %0, ptr noundef %1) #0 {
  %3 = alloca ptr, align 8
  %4 = alloca ptr, align 8
  %5 = alloca i32, align 4
  store ptr %0, ptr %3, align 8, !tbaa !3
  store ptr %1, ptr %4, align 8, !tbaa !3
  call void @llvm.lifetime.start.p0(i64 4, ptr %5) #7
  store i32 0, ptr %5, align 4, !tbaa !12
  br label %6

6:                                                ; preds = %22, %2
  %7 = load i32, ptr %5, align 4, !tbaa !12
  %8 = icmp slt i32 %7, 32
  br i1 %8, label %9, label %25

9:                                                ; preds = %6
  %10 = load ptr, ptr %4, align 8, !tbaa !3
  %11 = load i32, ptr %5, align 4, !tbaa !12
  %12 = mul nsw i32 %11, 2
  %13 = sext i32 %12 to i64
  %14 = getelementptr inbounds i8, ptr %10, i64 %13
  %15 = load ptr, ptr %3, align 8, !tbaa !3
  %16 = load i32, ptr %5, align 4, !tbaa !12
  %17 = sext i32 %16 to i64
  %18 = getelementptr inbounds i8, ptr %15, i64 %17
  %19 = load i8, ptr %18, align 1, !tbaa !14
  %20 = zext i8 %19 to i32
  %21 = call i32 (ptr, i64, ptr, ...) @curl_msnprintf(ptr noundef %14, i64 noundef 3, ptr noundef @.str.2, i32 noundef %20)
  br label %22

22:                                               ; preds = %9
  %23 = load i32, ptr %5, align 4, !tbaa !12
  %24 = add nsw i32 %23, 1
  store i32 %24, ptr %5, align 4, !tbaa !12
  br label %6, !llvm.loop !127

25:                                               ; preds = %6
  call void @llvm.lifetime.end.p0(i64 4, ptr %5) #7
  ret void
}